target datalayout = "e-m:e-p270:32:32-p271:32:32-p272:64:64-i64:64-i128:128-f80:128-n8:16:32:64-S128"
target triple = "x86_64-pc-linux-gnu"

%struct.malloc_params = type { i64, i64, i64, i64, i64, i32 }

@mparams = internal global %struct.malloc_params zeroinitializer, align 8

; Function Attrs: nounwind uwtable
define internal i32 @change_mparam(i32 noundef %0, i32 noundef %1) #0 {
  %3 = alloca i32, align 4
  %4 = alloca i32, align 4
  %5 = alloca i32, align 4
  %6 = alloca i64, align 8
  %7 = alloca i32, align 4
  store i32 %0, ptr %4, align 4, !tbaa !14
  store i32 %1, ptr %5, align 4, !tbaa !14
  call void @llvm.lifetime.start.p0(i64 8, ptr %6) #9
  %8 = load i64, ptr @mparams, align 8, !tbaa !7
  %9 = icmp ne i64 %8, 0
  br i1 %9, label %12, label %10

10:                                               ; preds = %2
  %11 = call i32 @init_mparams()
  br label %12

12:                                               ; preds = %10, %2
  %13 = load i32, ptr %5, align 4, !tbaa !14
  %14 = icmp eq i32 %13, -1
  br i1 %14, label %15, label %16

15:                                               ; preds = %12
  br label %19

16:                                               ; preds = %12
  %17 = load i32, ptr %5, align 4, !tbaa !14
  %18 = sext i32 %17 to i64
  br label %19

19:                                               ; preds = %16, %15
  %20 = phi i64 [ -1, %15 ], [ %18, %16 ]
  store i64 %20, ptr %6, align 8, !tbaa !3
  %21 = load i32, ptr %4, align 4, !tbaa !14
  switch i32 %21, label %39 [
    i32 -1, label %22
    i32 -2, label %24
    i32 -3, label %37
  ]

22:                                               ; preds = %19
  %23 = load i64, ptr %6, align 8, !tbaa !3
  store i64 %23, ptr getelementptr inbounds nuw (%struct.malloc_params, ptr @mparams, i32 0, i32 4), align 8, !tbaa !31
  store i32 1, ptr %3, align 4
  store i32 1, ptr %7, align 4
  br label %40

24:                                               ; preds = %19
  %25 = load i64, ptr %6, align 8, !tbaa !3
  %26 = load i64, ptr getelementptr inbounds nuw (%struct.malloc_params, ptr @mparams, i32 0, i32 1), align 8, !tbaa !29
  %27 = icmp uge i64 %25, %26
  br i1 %27, label %28, label %36

28:                                               ; preds = %24
  %29 = load i64, ptr %6, align 8, !tbaa !3
  %30 = load i64, ptr %6, align 8, !tbaa !3
  %31 = sub i64 %30, 1
  %32 = and i64 %29, %31
  %33 = icmp eq i64 %32, 0
  br i1 %33, label %34, label %36

34:                                               ; preds = %28
  %35 = load i64, ptr %6, align 8, !tbaa !3
  store i64 %35, ptr getelementptr inbounds nuw (%struct.malloc_params, ptr @mparams, i32 0, i32 2), align 8, !tbaa !28
  store i32 1, ptr %3, align 4
  store i32 1, ptr %7, align 4
  br label %40

36:                                               ; preds = %28, %24
  store i32 0, ptr %3, align 4
  store i32 1, ptr %7, align 4
  br label %40

37:                                               ; preds = %19
  %38 = load i64, ptr %6, align 8, !tbaa !3
  store i64 %38, ptr getelementptr inbounds nuw (%struct.malloc_params, ptr @mparams, i32 0, i32 3), align 8, !tbaa !30
  store i32 1, ptr %3, align 4
  store i32 1, ptr %7, align 4
  br label %40

39:                                               ; preds = %19
  store i32 0, ptr %3, align 4
  store i32 1, ptr %7, align 4
  br label %40

40:                                               ; preds = %39, %37, %36, %34, %22
  call void @llvm.lifetime.end.p0(i64 8, ptr %6) #9
  %41 = load i32, ptr %3, align 4
  ret i32 %41
}

; Function Attrs: nounwind uwtable
define hidden i32 @boost_cont_mallopt(i32 noundef %0, i32 noundef %1) #0 {
  %3 = alloca i32, align 4
  %4 = alloca i32, align 4
  store i32 %0, ptr %3, align 4, !tbaa !14
  store i32 %1, ptr %4, align 4, !tbaa !14
  %5 = load i32, ptr %3, align 4, !tbaa !14
  %6 = load i32, ptr %4, align 4, !tbaa !14
  %7 = call i32 @change_mparam(i32 noundef %5, i32 noundef %6)
  ret i32 %7
}