; Function Attrs: nounwind uwtable
define hidden range(i32 0, 2) i32 @boost_cont_mallopt(i32 noundef %0, i32 noundef %1) local_unnamed_addr #0 {
  %3 = load i64, ptr @mparams, align 8, !tbaa !3
  %.not.i = icmp eq i64 %3, 0
  br i1 %.not.i, label %4, label %5

4:                                                ; preds = %2
  tail call fastcc void @init_mparams()
  br label %5

5:                                                ; preds = %4, %2
  %6 = sext i32 %1 to i64
  switch i32 %0, label %change_mparam.exit [
    i32 -1, label %7
    i32 -2, label %8
    i32 -3, label %13
  ]

7:                                                ; preds = %5
  store i64 %6, ptr getelementptr inbounds nuw (i8, ptr @mparams, i64 32), align 8, !tbaa !33
  br label %change_mparam.exit

8:                                                ; preds = %5
  %9 = load i64, ptr getelementptr inbounds nuw (i8, ptr @mparams, i64 8), align 8, !tbaa !31
  %.not11.i = icmp ule i64 %9, %6
  %10 = tail call range(i64 0, 65) i64 @llvm.ctpop.i64(i64 %6)
  %11 = icmp samesign ult i64 %10, 2
  %or.cond.i = select i1 %.not11.i, i1 %11, i1 false
  br i1 %or.cond.i, label %12, label %change_mparam.exit

12:                                               ; preds = %8
  store i64 %6, ptr getelementptr inbounds nuw (i8, ptr @mparams, i64 16), align 8, !tbaa !30
  br label %change_mparam.exit

13:                                               ; preds = %5
  store i64 %6, ptr getelementptr inbounds nuw (i8, ptr @mparams, i64 24), align 8, !tbaa !32
  br label %change_mparam.exit

change_mparam.exit:                               ; preds = %5, %7, %8, %12, %13
  %.0.i = phi i32 [ 1, %13 ], [ 1, %12 ], [ 1, %7 ], [ 0, %8 ], [ 0, %5 ]
  ret i32 %.0.i
}